target datalayout = "e-m:e-p270:32:32-p271:32:32-p272:64:64-i64:64-i128:128-f80:128-n8:16:32:64-S128"
target triple = "x86_64-pc-linux-gnu"

%struct.UriParserStateStructW = type { ptr, i32, ptr, ptr }
%struct.UriUriStructW = type { %struct.UriTextRangeStructW, %struct.UriTextRangeStructW, %struct.UriTextRangeStructW, %struct.UriHostDataStructW, %struct.UriTextRangeStructW, ptr, ptr, %struct.UriTextRangeStructW, %struct.UriTextRangeStructW, i32, i32, ptr }
%struct.UriHostDataStructW = type { ptr, ptr, %struct.UriTextRangeStructW }
%struct.UriTextRangeStructW = type { ptr, ptr }

; Function Attrs: inlinehint nounwind uwtable
define internal void @uriStopSyntaxW(ptr noundef %0, ptr noundef %1, ptr noundef %2) #4 {
  %4 = alloca ptr, align 8
  %5 = alloca ptr, align 8
  %6 = alloca ptr, align 8
  store ptr %0, ptr %4, align 8, !tbaa !59
  store ptr %1, ptr %5, align 8, !tbaa !61
  store ptr %2, ptr %6, align 8, !tbaa !10
  %7 = load ptr, ptr %4, align 8, !tbaa !59
  %8 = getelementptr inbounds nuw %struct.UriParserStateStructW, ptr %7, i32 0, i32 0
  %9 = load ptr, ptr %8, align 8, !tbaa !63
  %10 = load ptr, ptr %6, align 8, !tbaa !10
  %11 = call i32 @uriFreeUriMembersMmW(ptr noundef %9, ptr noundef %10)
  %12 = load ptr, ptr %5, align 8, !tbaa !61
  %13 = load ptr, ptr %4, align 8, !tbaa !59
  %14 = getelementptr inbounds nuw %struct.UriParserStateStructW, ptr %13, i32 0, i32 2
  store ptr %12, ptr %14, align 8, !tbaa !67
  %15 = load ptr, ptr %4, align 8, !tbaa !59
  %16 = getelementptr inbounds nuw %struct.UriParserStateStructW, ptr %15, i32 0, i32 1
  store i32 1, ptr %16, align 8, !tbaa !68
  ret void
}

; Function Attrs: nounwind uwtable
define internal ptr @uriParseOwnUserInfoW(ptr noundef %0, ptr noundef %1, ptr noundef %2, ptr noundef %3) #0 {
  %5 = alloca ptr, align 8
  %6 = alloca ptr, align 8
  %7 = alloca ptr, align 8
  %8 = alloca ptr, align 8
  %9 = alloca ptr, align 8
  %10 = alloca ptr, align 8
  %11 = alloca i32, align 4
  store ptr %0, ptr %6, align 8, !tbaa !59
  store ptr %1, ptr %7, align 8, !tbaa !61
  store ptr %2, ptr %8, align 8, !tbaa !61
  store ptr %3, ptr %9, align 8, !tbaa !10
  %12 = load ptr, ptr %7, align 8, !tbaa !61
  %13 = load ptr, ptr %8, align 8, !tbaa !61
  %14 = icmp uge ptr %12, %13
  br i1 %14, label %15, label %19

15:                                               ; preds = %4
  %16 = load ptr, ptr %6, align 8, !tbaa !59
  %17 = load ptr, ptr %8, align 8, !tbaa !61
  %18 = load ptr, ptr %9, align 8, !tbaa !10
  call void @uriStopSyntaxW(ptr noundef %16, ptr noundef %17, ptr noundef %18)
  store ptr null, ptr %5, align 8
  br label %69

19:                                               ; preds = %4
  %20 = load ptr, ptr %7, align 8, !tbaa !61
  %21 = load i32, ptr %20, align 4, !tbaa !21
  switch i32 %21, label %65 [
    i32 33, label %22
    i32 36, label %22
    i32 37, label %22
    i32 38, label %22
    i32 40, label %22
    i32 41, label %22
    i32 45, label %22
    i32 42, label %22
    i32 44, label %22
    i32 46, label %22
    i32 59, label %22
    i32 39, label %22
    i32 95, label %22
    i32 126, label %22
    i32 43, label %22
    i32 61, label %22
    i32 48, label %22
    i32 49, label %22
    i32 50, label %22
    i32 51, label %22
    i32 52, label %22
    i32 53, label %22
    i32 54, label %22
    i32 55, label %22
    i32 56, label %22
    i32 57, label %22
    i32 65, label %22
    i32 66, label %22
    i32 67, label %22
    i32 68, label %22
    i32 69, label %22
    i32 70, label %22
    i32 97, label %22
    i32 98, label %22
    i32 99, label %22
    i32 100, label %22
    i32 101, label %22
    i32 102, label %22
    i32 103, label %22
    i32 71, label %22
    i32 104, label %22
    i32 72, label %22
    i32 105, label %22
    i32 73, label %22
    i32 106, label %22
    i32 74, label %22
    i32 107, label %22
    i32 75, label %22
    i32 108, label %22
    i32 76, label %22
    i32 109, label %22
    i32 77, label %22
    i32 110, label %22
    i32 78, label %22
    i32 111, label %22
    i32 79, label %22
    i32 112, label %22
    i32 80, label %22
    i32 113, label %22
    i32 81, label %22
    i32 114, label %22
    i32 82, label %22
    i32 115, label %22
    i32 83, label %22
    i32 116, label %22
    i32 84, label %22
    i32 117, label %22
    i32 85, label %22
    i32 118, label %22
    i32 86, label %22
    i32 119, label %22
    i32 87, label %22
    i32 120, label %22
    i32 88, label %22
    i32 121, label %22
    i32 89, label %22
    i32 122, label %22
    i32 90, label %22
    i32 58, label %38
    i32 64, label %45
  ]

22:                                               ; preds = %19, %19, %19, %19, %19, %19, %19, %19, %19, %19, %19, %19, %19, %19, %19, %19, %19, %19, %19, %19, %19, %19, %19, %19, %19, %19, %19, %19, %19, %19, %19, %19, %19, %19, %19, %19, %19, %19, %19, %19, %19, %19, %19, %19, %19, %19, %19, %19, %19, %19, %19, %19, %19, %19, %19, %19, %19, %19, %19, %19, %19, %19, %19, %19, %19, %19, %19, %19, %19, %19, %19, %19, %19, %19, %19, %19, %19, %19
  call void @llvm.lifetime.start.p0(i64 8, ptr %10) #7
  %23 = load ptr, ptr %6, align 8, !tbaa !59
  %24 = load ptr, ptr %7, align 8, !tbaa !61
  %25 = load ptr, ptr %8, align 8, !tbaa !61
  %26 = load ptr, ptr %9, align 8, !tbaa !10
  %27 = call ptr @uriParsePctSubUnresW(ptr noundef %23, ptr noundef %24, ptr noundef %25, ptr noundef %26)
  store ptr %27, ptr %10, align 8, !tbaa !61
  %28 = load ptr, ptr %10, align 8, !tbaa !61
  %29 = icmp eq ptr %28, null
  br i1 %29, label %30, label %31

30:                                               ; preds = %22
  store ptr null, ptr %5, align 8
  store i32 1, ptr %11, align 4
  br label %37

31:                                               ; preds = %22
  %32 = load ptr, ptr %6, align 8, !tbaa !59
  %33 = load ptr, ptr %10, align 8, !tbaa !61
  %34 = load ptr, ptr %8, align 8, !tbaa !61
  %35 = load ptr, ptr %9, align 8, !tbaa !10
  %36 = call ptr @uriParseOwnUserInfoW(ptr noundef %32, ptr noundef %33, ptr noundef %34, ptr noundef %35)
  store ptr %36, ptr %5, align 8
  store i32 1, ptr %11, align 4
  br label %37

37:                                               ; preds = %31, %30
  call void @llvm.lifetime.end.p0(i64 8, ptr %10) #7
  br label %69

38:                                               ; preds = %19
  %39 = load ptr, ptr %6, align 8, !tbaa !59
  %40 = load ptr, ptr %7, align 8, !tbaa !61
  %41 = getelementptr inbounds i32, ptr %40, i64 1
  %42 = load ptr, ptr %8, align 8, !tbaa !61
  %43 = load ptr, ptr %9, align 8, !tbaa !10
  %44 = call ptr @uriParseOwnUserInfoW(ptr noundef %39, ptr noundef %41, ptr noundef %42, ptr noundef %43)
  store ptr %44, ptr %5, align 8
  br label %69

45:                                               ; preds = %19
  %46 = load ptr, ptr %7, align 8, !tbaa !61
  %47 = load ptr, ptr %6, align 8, !tbaa !59
  %48 = getelementptr inbounds nuw %struct.UriParserStateStructW, ptr %47, i32 0, i32 0
  %49 = load ptr, ptr %48, align 8, !tbaa !63
  %50 = getelementptr inbounds nuw %struct.UriUriStructW, ptr %49, i32 0, i32 1
  %51 = getelementptr inbounds nuw %struct.UriTextRangeStructW, ptr %50, i32 0, i32 1
  store ptr %46, ptr %51, align 8, !tbaa !79
  %52 = load ptr, ptr %7, align 8, !tbaa !61
  %53 = getelementptr inbounds i32, ptr %52, i64 1
  %54 = load ptr, ptr %6, align 8, !tbaa !59
  %55 = getelementptr inbounds nuw %struct.UriParserStateStructW, ptr %54, i32 0, i32 0
  %56 = load ptr, ptr %55, align 8, !tbaa !63
  %57 = getelementptr inbounds nuw %struct.UriUriStructW, ptr %56, i32 0, i32 2
  %58 = getelementptr inbounds nuw %struct.UriTextRangeStructW, ptr %57, i32 0, i32 0
  store ptr %53, ptr %58, align 8, !tbaa !82
  %59 = load ptr, ptr %6, align 8, !tbaa !59
  %60 = load ptr, ptr %7, align 8, !tbaa !61
  %61 = getelementptr inbounds i32, ptr %60, i64 1
  %62 = load ptr, ptr %8, align 8, !tbaa !61
  %63 = load ptr, ptr %9, align 8, !tbaa !10
  %64 = call ptr @uriParseOwnHostW(ptr noundef %59, ptr noundef %61, ptr noundef %62, ptr noundef %63)
  store ptr %64, ptr %5, align 8
  br label %69

65:                                               ; preds = %19
  %66 = load ptr, ptr %6, align 8, !tbaa !59
  %67 = load ptr, ptr %7, align 8, !tbaa !61
  %68 = load ptr, ptr %9, align 8, !tbaa !10
  call void @uriStopSyntaxW(ptr noundef %66, ptr noundef %67, ptr noundef %68)
  store ptr null, ptr %5, align 8
  br label %69

69:                                               ; preds = %65, %45, %38, %37, %15
  %70 = load ptr, ptr %5, align 8
  ret ptr %70
}