; Function Attrs: nounwind uwtable
define internal fastcc ptr @uriParseOwnUserInfoW(ptr noundef nonnull %0, ptr noundef nonnull %1, ptr noundef nonnull %2, ptr noundef %3) unnamed_addr #0 {
  %.not41 = icmp ult ptr %1, %2
  br i1 %.not41, label %.lr.ph, label %tailrecurse._crit_edge

tailrecurse._crit_edge:                           ; preds = %tailrecurse.backedge, %4
  %5 = load ptr, ptr %0, align 8, !tbaa !51
  %6 = tail call i32 @uriFreeUriMembersMmW(ptr noundef %5, ptr noundef %3)
  %7 = getelementptr inbounds nuw i8, ptr %0, i64 16
  store ptr %2, ptr %7, align 8, !tbaa !68
  %8 = getelementptr inbounds nuw i8, ptr %0, i64 8
  store i32 1, ptr %8, align 8, !tbaa !69
  br label %.loopexit

.lr.ph:                                           ; preds = %4, %tailrecurse.backedge
  %.tr3542 = phi ptr [ %.tr35.be, %tailrecurse.backedge ], [ %1, %4 ]
  %9 = load i32, ptr %.tr3542, align 4, !tbaa !55
  switch i32 %9, label %21 [
    i32 33, label %10
    i32 36, label %10
    i32 37, label %10
    i32 38, label %10
    i32 40, label %10
    i32 41, label %10
    i32 45, label %10
    i32 42, label %10
    i32 44, label %10
    i32 46, label %10
    i32 59, label %10
    i32 39, label %10
    i32 95, label %10
    i32 126, label %10
    i32 43, label %10
    i32 61, label %10
    i32 48, label %10
    i32 49, label %10
    i32 50, label %10
    i32 51, label %10
    i32 52, label %10
    i32 53, label %10
    i32 54, label %10
    i32 55, label %10
    i32 56, label %10
    i32 57, label %10
    i32 65, label %10
    i32 66, label %10
    i32 67, label %10
    i32 68, label %10
    i32 69, label %10
    i32 70, label %10
    i32 97, label %10
    i32 98, label %10
    i32 99, label %10
    i32 100, label %10
    i32 101, label %10
    i32 102, label %10
    i32 103, label %10
    i32 71, label %10
    i32 104, label %10
    i32 72, label %10
    i32 105, label %10
    i32 73, label %10
    i32 106, label %10
    i32 74, label %10
    i32 107, label %10
    i32 75, label %10
    i32 108, label %10
    i32 76, label %10
    i32 109, label %10
    i32 77, label %10
    i32 110, label %10
    i32 78, label %10
    i32 111, label %10
    i32 79, label %10
    i32 112, label %10
    i32 80, label %10
    i32 113, label %10
    i32 81, label %10
    i32 114, label %10
    i32 82, label %10
    i32 115, label %10
    i32 83, label %10
    i32 116, label %10
    i32 84, label %10
    i32 117, label %10
    i32 85, label %10
    i32 118, label %10
    i32 86, label %10
    i32 119, label %10
    i32 87, label %10
    i32 120, label %10
    i32 88, label %10
    i32 121, label %10
    i32 89, label %10
    i32 122, label %10
    i32 90, label %10
    i32 58, label %13
    i32 64, label %15
  ]

10:                                               ; preds = %.lr.ph, %.lr.ph, %.lr.ph, %.lr.ph, %.lr.ph, %.lr.ph, %.lr.ph, %.lr.ph, %.lr.ph, %.lr.ph, %.lr.ph, %.lr.ph, %.lr.ph, %.lr.ph, %.lr.ph, %.lr.ph, %.lr.ph, %.lr.ph, %.lr.ph, %.lr.ph, %.lr.ph, %.lr.ph, %.lr.ph, %.lr.ph, %.lr.ph, %.lr.ph, %.lr.ph, %.lr.ph, %.lr.ph, %.lr.ph, %.lr.ph, %.lr.ph, %.lr.ph, %.lr.ph, %.lr.ph, %.lr.ph, %.lr.ph, %.lr.ph, %.lr.ph, %.lr.ph, %.lr.ph, %.lr.ph, %.lr.ph, %.lr.ph, %.lr.ph, %.lr.ph, %.lr.ph, %.lr.ph, %.lr.ph, %.lr.ph, %.lr.ph, %.lr.ph, %.lr.ph, %.lr.ph, %.lr.ph, %.lr.ph, %.lr.ph, %.lr.ph, %.lr.ph, %.lr.ph, %.lr.ph, %.lr.ph, %.lr.ph, %.lr.ph, %.lr.ph, %.lr.ph, %.lr.ph, %.lr.ph, %.lr.ph, %.lr.ph, %.lr.ph, %.lr.ph, %.lr.ph, %.lr.ph, %.lr.ph, %.lr.ph, %.lr.ph, %.lr.ph
  %11 = tail call fastcc ptr @uriParsePctSubUnresW(ptr noundef %0, ptr noundef %.tr3542, ptr noundef %2, ptr noundef %3)
  %12 = icmp eq ptr %11, null
  br i1 %12, label %.loopexit, label %tailrecurse.backedge

13:                                               ; preds = %.lr.ph
  %14 = getelementptr inbounds nuw i8, ptr %.tr3542, i64 4
  br label %tailrecurse.backedge

tailrecurse.backedge:                             ; preds = %13, %10
  %.tr35.be = phi ptr [ %14, %13 ], [ %11, %10 ]
  %.not = icmp ult ptr %.tr35.be, %2
  br i1 %.not, label %.lr.ph, label %tailrecurse._crit_edge

15:                                               ; preds = %.lr.ph
  %16 = load ptr, ptr %0, align 8, !tbaa !51
  %17 = getelementptr inbounds nuw i8, ptr %16, i64 24
  store ptr %.tr3542, ptr %17, align 8, !tbaa !73
  %18 = getelementptr inbounds nuw i8, ptr %.tr3542, i64 4
  %19 = getelementptr inbounds nuw i8, ptr %16, i64 32
  store ptr %18, ptr %19, align 8, !tbaa !76
  %20 = tail call fastcc ptr @uriParseOwnHostW(ptr noundef %0, ptr noundef %18, ptr noundef %2, ptr noundef %3)
  br label %.loopexit

21:                                               ; preds = %.lr.ph
  %22 = load ptr, ptr %0, align 8, !tbaa !51
  %23 = tail call i32 @uriFreeUriMembersMmW(ptr noundef %22, ptr noundef %3)
  %24 = getelementptr inbounds nuw i8, ptr %0, i64 16
  store ptr %.tr3542, ptr %24, align 8, !tbaa !68
  %25 = getelementptr inbounds nuw i8, ptr %0, i64 8
  store i32 1, ptr %25, align 8, !tbaa !69
  br label %.loopexit

.loopexit:                                        ; preds = %10, %21, %15, %tailrecurse._crit_edge
  %.0 = phi ptr [ null, %tailrecurse._crit_edge ], [ null, %21 ], [ %20, %15 ], [ null, %10 ]
  ret ptr %.0
}